; Function Attrs: nounwind uwtable
define void @Mtr_FreeTree(ptr noundef %0) local_unnamed_addr #5 {
  %2 = icmp eq ptr %0, null
  br i1 %2, label %common.ret5, label %3

3:                                                ; preds = %1
  %4 = load i32, ptr %0, align 8, !tbaa !3
  %5 = and i32 %4, 1
  %.not = icmp eq i32 %5, 0
  br i1 %.not, label %6, label %Mtr_DeallocNode.exit

6:                                                ; preds = %3
  %7 = getelementptr inbounds nuw i8, ptr %0, i64 24
  %8 = load ptr, ptr %7, align 8, !tbaa !10
  tail call void @Mtr_FreeTree(ptr noundef %8)
  br label %Mtr_DeallocNode.exit

common.ret5:                                      ; preds = %1, %Mtr_DeallocNode.exit
  ret void

Mtr_DeallocNode.exit:                             ; preds = %6, %3
  %9 = getelementptr inbounds nuw i8, ptr %0, i64 40
  %10 = load ptr, ptr %9, align 8, !tbaa !11
  tail call void @Mtr_FreeTree(ptr noundef %10)
  tail call void @free(ptr noundef nonnull %0) #13
  br label %common.ret5
}